target datalayout = "e-m:e-p270:32:32-p271:32:32-p272:64:64-i64:64-i128:128-f80:128-n8:16:32:64-S128"
target triple = "x86_64-pc-linux-gnu"

@.str.8 = private unnamed_addr constant [3 x i8] c"%u\00", align 1

; Function Attrs: nounwind uwtable
define dso_local ptr @gid_to_string(i32 noundef %0) #0 {
  %2 = alloca ptr, align 8
  %3 = alloca i32, align 4
  %4 = alloca ptr, align 8
  %5 = alloca i32, align 4
  store i32 %0, ptr %3, align 4
  call void @llvm.lifetime.start.p0(i64 8, ptr %4) #9
  %6 = load i32, ptr %3, align 4
  %7 = call ptr @gid_to_string_or_null(i32 noundef %6)
  store ptr %7, ptr %4, align 8
  %8 = load ptr, ptr %4, align 8
  %9 = icmp ne ptr %8, null
  br i1 %9, label %13, label %10

10:                                               ; preds = %1
  %11 = load i32, ptr %3, align 4
  %12 = call ptr (ptr, ...) @xstrdup_printf(ptr noundef @.str.8, i32 noundef %11)
  store ptr %12, ptr %2, align 8
  store i32 1, ptr %5, align 4
  br label %15

13:                                               ; preds = %1
  %14 = load ptr, ptr %4, align 8
  store ptr %14, ptr %2, align 8
  store i32 1, ptr %5, align 4
  br label %15

15:                                               ; preds = %13, %10
  call void @llvm.lifetime.end.p0(i64 8, ptr %4) #9
  %16 = load ptr, ptr %2, align 8
  ret ptr %16
}