; Function Attrs: nounwind uwtable
define dso_local ptr @gid_to_string(i32 noundef %0) local_unnamed_addr #0 {
  %2 = tail call ptr @gid_to_string_or_null(i32 noundef %0)
  %.not = icmp eq ptr %2, null
  br i1 %.not, label %3, label %5

3:                                                ; preds = %1
  %4 = tail call ptr (ptr, ...) @xstrdup_printf(ptr noundef nonnull @.str.8, i32 noundef %0) #10
  br label %5

5:                                                ; preds = %1, %3
  %.0 = phi ptr [ %4, %3 ], [ %2, %1 ]
  ret ptr %.0
}